target datalayout = "e-m:e-p270:32:32-p271:32:32-p272:64:64-i64:64-i128:128-f80:128-n8:16:32:64-S128"
target triple = "x86_64-pc-linux-gnu"

%"class.cv::RNG" = type { i64 }

; Function Attrs: inlinehint mustprogress nounwind uwtable
define linkonce_odr hidden noundef i32 @_ZN2cv3RNG4nextEv(ptr noundef nonnull align 8 dereferenceable(8) %0) #4 comdat align 2 {
  %2 = alloca ptr, align 8
  store ptr %0, ptr %2, align 8, !tbaa !13
  %3 = load ptr, ptr %2, align 8
  %4 = getelementptr inbounds nuw %"class.cv::RNG", ptr %3, i32 0, i32 0
  %5 = load i64, ptr %4, align 8, !tbaa !181
  %6 = trunc i64 %5 to i32
  %7 = zext i32 %6 to i64
  %8 = mul i64 %7, 4164903690
  %9 = getelementptr inbounds nuw %"class.cv::RNG", ptr %3, i32 0, i32 0
  %10 = load i64, ptr %9, align 8, !tbaa !181
  %11 = lshr i64 %10, 32
  %12 = trunc i64 %11 to i32
  %13 = zext i32 %12 to i64
  %14 = add i64 %8, %13
  %15 = getelementptr inbounds nuw %"class.cv::RNG", ptr %3, i32 0, i32 0
  store i64 %14, ptr %15, align 8, !tbaa !181
  %16 = getelementptr inbounds nuw %"class.cv::RNG", ptr %3, i32 0, i32 0
  %17 = load i64, ptr %16, align 8, !tbaa !181
  %18 = trunc i64 %17 to i32
  ret i32 %18
}

; Function Attrs: inlinehint mustprogress uwtable
define linkonce_odr hidden noundef i32 @_ZN2cv3RNG7uniformEii(ptr noundef nonnull align 8 dereferenceable(8) %0, i32 noundef %1, i32 noundef %2) #7 comdat align 2 {
  %4 = alloca ptr, align 8
  %5 = alloca i32, align 4
  %6 = alloca i32, align 4
  store ptr %0, ptr %4, align 8, !tbaa !13
  store i32 %1, ptr %5, align 4, !tbaa !8
  store i32 %2, ptr %6, align 4, !tbaa !8
  %7 = load ptr, ptr %4, align 8
  %8 = load i32, ptr %5, align 4, !tbaa !8
  %9 = load i32, ptr %6, align 4, !tbaa !8
  %10 = icmp eq i32 %8, %9
  br i1 %10, label %11, label %13

11:                                               ; preds = %3
  %12 = load i32, ptr %5, align 4, !tbaa !8
  br label %21

13:                                               ; preds = %3
  %14 = call noundef i32 @_ZN2cv3RNG4nextEv(ptr noundef nonnull align 8 dereferenceable(8) %7)
  %15 = load i32, ptr %6, align 4, !tbaa !8
  %16 = load i32, ptr %5, align 4, !tbaa !8
  %17 = sub nsw i32 %15, %16
  %18 = urem i32 %14, %17
  %19 = load i32, ptr %5, align 4, !tbaa !8
  %20 = add i32 %18, %19
  br label %21

21:                                               ; preds = %13, %11
  %22 = phi i32 [ %12, %11 ], [ %20, %13 ]
  ret i32 %22
}

; Function Attrs: mustprogress uwtable
define linkonce_odr hidden noundef nonnull align 8 dereferenceable(8) ptr @_ZN6cvtest2TS7get_rngEv(ptr noundef nonnull align 8 dereferenceable(280) %0) #6 comdat align 2 {
  %2 = alloca ptr, align 8
  store ptr %0, ptr %2, align 8, !tbaa !15
  %3 = call noundef nonnull align 8 dereferenceable(8) ptr @_ZN2cv6theRNGEv()
  ret ptr %3
}

; Function Attrs: mustprogress uwtable
define hidden noundef i32 @_ZN6cvtest9randomIntEii(i32 noundef %0, i32 noundef %1) #6 {
  %3 = alloca i32, align 4
  %4 = alloca i32, align 4
  %5 = alloca ptr, align 8
  store i32 %0, ptr %3, align 4, !tbaa !8
  store i32 %1, ptr %4, align 4, !tbaa !8
  call void @llvm.lifetime.start.p0(i64 8, ptr %5) #3
  %6 = call noundef ptr @_ZN6cvtest2TS3ptrEv()
  %7 = call noundef nonnull align 8 dereferenceable(8) ptr @_ZN6cvtest2TS7get_rngEv(ptr noundef nonnull align 8 dereferenceable(280) %6)
  store ptr %7, ptr %5, align 8, !tbaa !13
  %8 = load ptr, ptr %5, align 8, !tbaa !13
  %9 = load i32, ptr %3, align 4, !tbaa !8
  %10 = load i32, ptr %4, align 4, !tbaa !8
  %11 = call noundef i32 @_ZN2cv3RNG7uniformEii(ptr noundef nonnull align 8 dereferenceable(8) %8, i32 noundef %9, i32 noundef %10)
  call void @llvm.lifetime.end.p0(i64 8, ptr %5) #3
  ret i32 %11
}