; Function Attrs: mustprogress uwtable
define hidden noundef i32 @_ZN6cvtest9randomIntEii(i32 noundef %0, i32 noundef %1) local_unnamed_addr #4 {
  %3 = tail call noundef ptr @_ZN6cvtest2TS3ptrEv()
  %4 = tail call noundef nonnull align 8 dereferenceable(8) ptr @_ZN2cv6theRNGEv()
  %5 = icmp eq i32 %0, %1
  br i1 %5, label %_ZN2cv3RNG7uniformEii.exit, label %6

6:                                                ; preds = %2
  %7 = load i64, ptr %4, align 8, !tbaa !3
  %8 = and i64 %7, 4294967295
  %9 = mul nuw i64 %8, 4164903690
  %10 = lshr i64 %7, 32
  %11 = add nuw i64 %9, %10
  store i64 %11, ptr %4, align 8, !tbaa !3
  %12 = trunc i64 %11 to i32
  %13 = sub nsw i32 %1, %0
  %14 = urem i32 %12, %13
  %15 = add i32 %14, %0
  br label %_ZN2cv3RNG7uniformEii.exit

_ZN2cv3RNG7uniformEii.exit:                       ; preds = %2, %6
  %16 = phi i32 [ %15, %6 ], [ %0, %2 ]
  ret i32 %16
}